(lp0
(S'cppflags'
p1
ccopy_reg
_reconstructor
p2
(cino.utils
SpaceList
p3
c__builtin__
list
p4
(lp5
S'-mmcu=atmega328p'
p6
aS'-DF_CPU=16000000L'
p7
aS'-DARDUINO=101'
p8
aS'-I/usr/share/arduino/hardware/arduino/cores/arduino'
p9
aS'-ffunction-sections'
p10
aS'-fdata-sections'
p11
aS'-g'
p12
aS'-Os'
p13
aS'-w'
p14
aS'-I/usr/share/arduino/hardware/arduino/variants/standard'
p15
aS'-Ilib/MicroView'
p16
aS'-Ilib/MicroView/MicroView-Arduino-Library'
p17
aS'-Ilib/Adafruit_NeoPixel'
p18
aS'-Ilib/CapacitiveSensor'
p19
aS'-I/usr/share/arduino/hardware/arduino/cores/arduino'
p20
atp21
Rp22
tp23
a(S'cxx'
p24
S'/usr/bin/avr-g++'
p25
tp26
a(S'build_dir'
p27
S'.build/uno'
p28
tp29
a(S'avrdude'
p30
S'/usr/share/arduino/hardware/tools/avrdude'
p31
tp32
a(S'ar'
p33
S'/usr/bin/avr-ar'
p34
tp35
a(S'names'
p36
(dp37
S'cpp'
p38
S'%s.cpp'
p39
sS'obj'
p40
S'%s.o'
p41
sS'lib'
p42
S'lib%s.a'
p43
sS'deps'
p44
S'%s.d'
p45
stp46
a(S'ldflags'
p47
g2
(g3
g4
(lp48
g6
aS'-Wl,-Os'
p49
aS'-Wl,--gc-sections'
p50
atp51
Rp52
tp53
a(S'arduino_lib_version'
p54
g2
(cino.environment
Version
p55
c__builtin__
tuple
p56
(I1
I0
I1
tp57
tp58
Rp59
tp60
a(S'objcopy'
p61
S'/usr/bin/avr-objcopy'
p62
tp63
a(S'board_models'
p64
cino.environment
BoardModels
p65
((lp66
(lp67
S'uno'
p68
a(dp69
<<<<<<< HEAD
S'bootloader'
p70
(dp71
S'extended_fuses'
p72
S'0x05'
p73
sS'high_fuses'
p74
S'0xde'
p75
sS'low_fuses'
p76
S'0xff'
p77
sS'lock_bits'
p78
S'0x0F'
p79
sS'file'
p80
S'optiboot_atmega328.hex'
p81
sS'path'
p82
S'optiboot'
p83
sS'unlock_bits'
p84
S'0x3F'
p85
ssS'upload'
p86
(dp87
S'speed'
p88
S'115200'
p89
sS'maximum_size'
p90
S'32256'
p91
sS'protocol'
p92
S'arduino'
p93
ssS'build'
p94
(dp95
S'core'
p96
S'arduino'
p97
sS'mcu'
p98
S'atmega328p'
p99
sS'f_cpu'
p100
S'16000000L'
p101
sS'variant'
p102
S'standard'
=======
S'build'
p70
(dp71
S'core'
p72
S'arduino'
p73
sS'mcu'
p74
S'atmega328p'
p75
sS'f_cpu'
p76
S'16000000L'
p77
sS'variant'
p78
S'standard'
p79
ssS'bootloader'
p80
(dp81
S'extended_fuses'
p82
S'0x05'
p83
sS'high_fuses'
p84
S'0xde'
p85
sS'low_fuses'
p86
S'0xff'
p87
sS'lock_bits'
p88
S'0x0F'
p89
sS'file'
p90
S'optiboot_atmega328.hex'
p91
sS'path'
p92
S'optiboot'
p93
sS'unlock_bits'
p94
S'0x3F'
p95
ssS'upload'
p96
(dp97
S'speed'
p98
S'115200'
p99
sS'maximum_size'
p100
S'32256'
p101
sS'protocol'
p102
S'arduino'
>>>>>>> 9799479b13463f7d8eae611493547c0a004b50eb
p103
ssS'name'
p104
S'Arduino Uno'
p105
sS'_coredir'
p106
S'/usr/share/arduino/hardware/arduino'
p107
saa(lp108
S'atmega328'
p109
a(dp110
<<<<<<< HEAD
S'bootloader'
p111
(dp112
S'extended_fuses'
p113
S'0x05'
p114
sS'high_fuses'
p115
S'0xDA'
p116
sS'low_fuses'
p117
S'0xFF'
p118
sS'lock_bits'
p119
S'0x0F'
p120
sS'file'
p121
S'ATmegaBOOT_168_atmega328.hex'
p122
sS'path'
p123
S'atmega'
p124
sS'unlock_bits'
p125
S'0x3F'
p126
ssS'upload'
p127
(dp128
S'speed'
p129
S'57600'
p130
sS'maximum_size'
p131
S'30720'
p132
sS'protocol'
p133
S'arduino'
p134
ssS'build'
p135
(dp136
S'core'
p137
S'arduino'
p138
sS'mcu'
p139
S'atmega328p'
p140
sS'f_cpu'
p141
S'16000000L'
p142
sS'variant'
p143
S'standard'
=======
S'build'
p111
(dp112
S'core'
p113
S'arduino'
p114
sS'mcu'
p115
S'atmega328p'
p116
sS'f_cpu'
p117
S'16000000L'
p118
sS'variant'
p119
S'standard'
p120
ssS'bootloader'
p121
(dp122
S'extended_fuses'
p123
S'0x05'
p124
sS'high_fuses'
p125
S'0xDA'
p126
sS'low_fuses'
p127
S'0xFF'
p128
sS'lock_bits'
p129
S'0x0F'
p130
sS'file'
p131
S'ATmegaBOOT_168_atmega328.hex'
p132
sS'path'
p133
S'atmega'
p134
sS'unlock_bits'
p135
S'0x3F'
p136
ssS'upload'
p137
(dp138
S'speed'
p139
S'57600'
p140
sS'maximum_size'
p141
S'30720'
p142
sS'protocol'
p143
S'arduino'
>>>>>>> 9799479b13463f7d8eae611493547c0a004b50eb
p144
ssS'name'
p145
S'Arduino Duemilanove w/ ATmega328'
p146
sg106
S'/usr/share/arduino/hardware/arduino'
p147
saa(lp148
S'diecimila'
p149
a(dp150
<<<<<<< HEAD
S'bootloader'
p151
(dp152
S'extended_fuses'
p153
S'0x00'
p154
sS'high_fuses'
p155
S'0xdd'
p156
sS'low_fuses'
p157
S'0xff'
p158
sS'lock_bits'
p159
S'0x0F'
p160
sS'file'
p161
S'ATmegaBOOT_168_diecimila.hex'
p162
sS'path'
p163
S'atmega'
p164
sS'unlock_bits'
p165
S'0x3F'
p166
ssS'upload'
p167
(dp168
S'speed'
p169
S'19200'
p170
sS'maximum_size'
p171
S'14336'
p172
sS'protocol'
p173
S'arduino'
p174
ssS'build'
p175
(dp176
S'core'
p177
S'arduino'
p178
sS'mcu'
p179
S'atmega168'
p180
sS'f_cpu'
p181
S'16000000L'
p182
sS'variant'
p183
S'standard'
=======
S'build'
p151
(dp152
S'core'
p153
S'arduino'
p154
sS'mcu'
p155
S'atmega168'
p156
sS'f_cpu'
p157
S'16000000L'
p158
sS'variant'
p159
S'standard'
p160
ssS'bootloader'
p161
(dp162
S'extended_fuses'
p163
S'0x00'
p164
sS'high_fuses'
p165
S'0xdd'
p166
sS'low_fuses'
p167
S'0xff'
p168
sS'lock_bits'
p169
S'0x0F'
p170
sS'file'
p171
S'ATmegaBOOT_168_diecimila.hex'
p172
sS'path'
p173
S'atmega'
p174
sS'unlock_bits'
p175
S'0x3F'
p176
ssS'upload'
p177
(dp178
S'speed'
p179
S'19200'
p180
sS'maximum_size'
p181
S'14336'
p182
sS'protocol'
p183
S'arduino'
>>>>>>> 9799479b13463f7d8eae611493547c0a004b50eb
p184
ssS'name'
p185
S'Arduino Diecimila or Duemilanove w/ ATmega168'
p186
sg106
S'/usr/share/arduino/hardware/arduino'
p187
saa(lp188
S'nano328'
p189
a(dp190
<<<<<<< HEAD
S'bootloader'
p191
(dp192
S'extended_fuses'
p193
S'0x05'
p194
sS'high_fuses'
p195
S'0xDA'
p196
sS'low_fuses'
p197
S'0xFF'
p198
sS'lock_bits'
p199
S'0x0F'
p200
sS'file'
p201
S'ATmegaBOOT_168_atmega328.hex'
p202
sS'path'
p203
S'atmega'
p204
sS'unlock_bits'
p205
S'0x3F'
p206
ssS'upload'
p207
(dp208
S'speed'
p209
S'57600'
p210
sS'maximum_size'
p211
S'30720'
p212
sS'protocol'
p213
S'arduino'
p214
ssS'build'
p215
(dp216
S'core'
p217
S'arduino'
p218
sS'mcu'
p219
S'atmega328p'
p220
sS'f_cpu'
p221
S'16000000L'
p222
sS'variant'
p223
S'eightanaloginputs'
=======
S'build'
p191
(dp192
S'core'
p193
S'arduino'
p194
sS'mcu'
p195
S'atmega328p'
p196
sS'f_cpu'
p197
S'16000000L'
p198
sS'variant'
p199
S'eightanaloginputs'
p200
ssS'bootloader'
p201
(dp202
S'extended_fuses'
p203
S'0x05'
p204
sS'high_fuses'
p205
S'0xDA'
p206
sS'low_fuses'
p207
S'0xFF'
p208
sS'lock_bits'
p209
S'0x0F'
p210
sS'file'
p211
S'ATmegaBOOT_168_atmega328.hex'
p212
sS'path'
p213
S'atmega'
p214
sS'unlock_bits'
p215
S'0x3F'
p216
ssS'upload'
p217
(dp218
S'speed'
p219
S'57600'
p220
sS'maximum_size'
p221
S'30720'
p222
sS'protocol'
p223
S'arduino'
>>>>>>> 9799479b13463f7d8eae611493547c0a004b50eb
p224
ssS'name'
p225
S'Arduino Nano w/ ATmega328'
p226
sg106
S'/usr/share/arduino/hardware/arduino'
p227
saa(lp228
S'nano'
p229
a(dp230
<<<<<<< HEAD
S'bootloader'
p231
(dp232
S'extended_fuses'
p233
S'0x00'
p234
sS'high_fuses'
p235
S'0xdd'
p236
sS'low_fuses'
p237
S'0xff'
p238
sS'lock_bits'
p239
S'0x0F'
p240
sS'file'
p241
S'ATmegaBOOT_168_diecimila.hex'
p242
sS'path'
p243
S'atmega'
p244
sS'unlock_bits'
p245
S'0x3F'
p246
ssS'upload'
p247
(dp248
S'speed'
p249
S'19200'
p250
sS'maximum_size'
p251
S'14336'
p252
sS'protocol'
p253
S'arduino'
p254
ssS'build'
p255
(dp256
S'core'
p257
S'arduino'
p258
sS'mcu'
p259
S'atmega168'
p260
sS'f_cpu'
p261
S'16000000L'
p262
sS'variant'
p263
S'eightanaloginputs'
=======
S'build'
p231
(dp232
S'core'
p233
S'arduino'
p234
sS'mcu'
p235
S'atmega168'
p236
sS'f_cpu'
p237
S'16000000L'
p238
sS'variant'
p239
S'eightanaloginputs'
p240
ssS'bootloader'
p241
(dp242
S'extended_fuses'
p243
S'0x00'
p244
sS'high_fuses'
p245
S'0xdd'
p246
sS'low_fuses'
p247
S'0xff'
p248
sS'lock_bits'
p249
S'0x0F'
p250
sS'file'
p251
S'ATmegaBOOT_168_diecimila.hex'
p252
sS'path'
p253
S'atmega'
p254
sS'unlock_bits'
p255
S'0x3F'
p256
ssS'upload'
p257
(dp258
S'speed'
p259
S'19200'
p260
sS'maximum_size'
p261
S'14336'
p262
sS'protocol'
p263
S'arduino'
>>>>>>> 9799479b13463f7d8eae611493547c0a004b50eb
p264
ssS'name'
p265
S'Arduino Nano w/ ATmega168'
p266
sg106
S'/usr/share/arduino/hardware/arduino'
p267
saa(lp268
S'mega2560'
p269
a(dp270
<<<<<<< HEAD
S'bootloader'
p271
(dp272
S'extended_fuses'
p273
S'0xFD'
p274
sS'high_fuses'
p275
S'0xD8'
p276
sS'low_fuses'
p277
S'0xFF'
p278
sS'lock_bits'
p279
S'0x0F'
p280
sS'file'
p281
S'stk500boot_v2_mega2560.hex'
p282
sS'path'
p283
S'stk500v2'
p284
sS'unlock_bits'
p285
S'0x3F'
p286
ssS'upload'
p287
(dp288
S'speed'
p289
S'115200'
p290
sS'maximum_size'
p291
S'258048'
p292
sS'protocol'
p293
S'stk500v2'
p294
ssS'build'
p295
(dp296
S'core'
p297
S'arduino'
p298
sS'mcu'
p299
S'atmega2560'
p300
sS'f_cpu'
p301
S'16000000L'
p302
sS'variant'
p303
S'mega'
=======
S'build'
p271
(dp272
S'core'
p273
S'arduino'
p274
sS'mcu'
p275
S'atmega2560'
p276
sS'f_cpu'
p277
S'16000000L'
p278
sS'variant'
p279
S'mega'
p280
ssS'bootloader'
p281
(dp282
S'extended_fuses'
p283
S'0xFD'
p284
sS'high_fuses'
p285
S'0xD8'
p286
sS'low_fuses'
p287
S'0xFF'
p288
sS'lock_bits'
p289
S'0x0F'
p290
sS'file'
p291
S'stk500boot_v2_mega2560.hex'
p292
sS'path'
p293
S'stk500v2'
p294
sS'unlock_bits'
p295
S'0x3F'
p296
ssS'upload'
p297
(dp298
S'speed'
p299
S'115200'
p300
sS'maximum_size'
p301
S'258048'
p302
sS'protocol'
p303
S'stk500v2'
>>>>>>> 9799479b13463f7d8eae611493547c0a004b50eb
p304
ssS'name'
p305
S'Arduino Mega 2560 or Mega ADK'
p306
sg106
S'/usr/share/arduino/hardware/arduino'
p307
saa(lp308
S'mega'
p309
a(dp310
<<<<<<< HEAD
S'bootloader'
p311
(dp312
S'extended_fuses'
p313
S'0xF5'
p314
sS'high_fuses'
p315
S'0xDA'
p316
sS'low_fuses'
p317
S'0xFF'
p318
sS'lock_bits'
p319
S'0x0F'
p320
sS'file'
p321
S'ATmegaBOOT_168_atmega1280.hex'
p322
sS'path'
p323
S'atmega'
p324
sS'unlock_bits'
p325
S'0x3F'
p326
ssS'upload'
p327
(dp328
S'speed'
p329
S'57600'
p330
sS'maximum_size'
p331
S'126976'
p332
sS'protocol'
p333
S'arduino'
p334
ssS'build'
p335
(dp336
S'core'
p337
S'arduino'
p338
sS'mcu'
p339
S'atmega1280'
p340
sS'f_cpu'
p341
S'16000000L'
p342
sS'variant'
p343
S'mega'
=======
S'build'
p311
(dp312
S'core'
p313
S'arduino'
p314
sS'mcu'
p315
S'atmega1280'
p316
sS'f_cpu'
p317
S'16000000L'
p318
sS'variant'
p319
S'mega'
p320
ssS'bootloader'
p321
(dp322
S'extended_fuses'
p323
S'0xF5'
p324
sS'high_fuses'
p325
S'0xDA'
p326
sS'low_fuses'
p327
S'0xFF'
p328
sS'lock_bits'
p329
S'0x0F'
p330
sS'file'
p331
S'ATmegaBOOT_168_atmega1280.hex'
p332
sS'path'
p333
S'atmega'
p334
sS'unlock_bits'
p335
S'0x3F'
p336
ssS'upload'
p337
(dp338
S'speed'
p339
S'57600'
p340
sS'maximum_size'
p341
S'126976'
p342
sS'protocol'
p343
S'arduino'
>>>>>>> 9799479b13463f7d8eae611493547c0a004b50eb
p344
ssS'name'
p345
S'Arduino Mega (ATmega1280)'
p346
sg106
S'/usr/share/arduino/hardware/arduino'
p347
saa(lp348
S'leonardo'
p349
a(dp350
<<<<<<< HEAD
S'bootloader'
p351
(dp352
S'extended_fuses'
p353
S'0xcb'
p354
sS'high_fuses'
p355
S'0xd8'
p356
sS'low_fuses'
p357
S'0xff'
p358
sS'lock_bits'
p359
S'0x2F'
p360
sS'file'
p361
S'Caterina-Leonardo.hex'
p362
sS'path'
p363
S'caterina'
p364
sS'unlock_bits'
p365
S'0x3F'
p366
ssS'upload'
p367
(dp368
S'speed'
p369
S'57600'
p370
sS'maximum_size'
p371
S'28672'
p372
sS'protocol'
p373
S'avr109'
p374
sS'disable_flushing'
p375
S'true'
p376
ssS'build'
p377
(dp378
S'core'
p379
S'arduino'
p380
sS'f_cpu'
p381
S'16000000L'
p382
sS'vid'
p383
S'0x2341'
p384
sS'pid'
p385
S'0x8036'
p386
sS'variant'
p387
S'leonardo'
p388
sS'mcu'
p389
S'atmega32u4'
=======
S'build'
p351
(dp352
S'core'
p353
S'arduino'
p354
sS'f_cpu'
p355
S'16000000L'
p356
sS'vid'
p357
S'0x2341'
p358
sS'pid'
p359
S'0x8036'
p360
sS'variant'
p361
S'leonardo'
p362
sS'mcu'
p363
S'atmega32u4'
p364
ssS'bootloader'
p365
(dp366
S'extended_fuses'
p367
S'0xcb'
p368
sS'high_fuses'
p369
S'0xd8'
p370
sS'low_fuses'
p371
S'0xff'
p372
sS'lock_bits'
p373
S'0x2F'
p374
sS'file'
p375
S'Caterina-Leonardo.hex'
p376
sS'path'
p377
S'caterina'
p378
sS'unlock_bits'
p379
S'0x3F'
p380
ssS'upload'
p381
(dp382
S'speed'
p383
S'57600'
p384
sS'maximum_size'
p385
S'28672'
p386
sS'protocol'
p387
S'avr109'
p388
sS'disable_flushing'
p389
S'true'
>>>>>>> 9799479b13463f7d8eae611493547c0a004b50eb
p390
ssS'name'
p391
S'Arduino Leonardo'
p392
sg106
S'/usr/share/arduino/hardware/arduino'
p393
saa(lp394
S'mini328'
p395
a(dp396
<<<<<<< HEAD
S'bootloader'
p397
(dp398
S'extended_fuses'
p399
S'0x05'
p400
sS'high_fuses'
p401
S'0xd8'
p402
sS'low_fuses'
p403
S'0xff'
p404
sS'lock_bits'
p405
S'0x0F'
p406
sS'file'
p407
S'optiboot_atmega328-Mini.hex'
p408
sS'path'
p409
S'optiboot'
p410
sS'unlock_bits'
p411
S'0x3F'
p412
ssS'upload'
p413
(dp414
S'speed'
p415
S'115200'
p416
sS'maximum_size'
p417
S'28672'
p418
sS'protocol'
p419
S'arduino'
p420
ssS'build'
p421
(dp422
S'core'
p423
S'arduino'
p424
sS'mcu'
p425
S'atmega328p'
p426
sS'f_cpu'
p427
S'16000000L'
p428
sS'variant'
p429
S'eightanaloginputs'
=======
S'build'
p397
(dp398
S'core'
p399
S'arduino'
p400
sS'mcu'
p401
S'atmega328p'
p402
sS'f_cpu'
p403
S'16000000L'
p404
sS'variant'
p405
S'eightanaloginputs'
p406
ssS'bootloader'
p407
(dp408
S'extended_fuses'
p409
S'0x05'
p410
sS'high_fuses'
p411
S'0xd8'
p412
sS'low_fuses'
p413
S'0xff'
p414
sS'lock_bits'
p415
S'0x0F'
p416
sS'file'
p417
S'optiboot_atmega328-Mini.hex'
p418
sS'path'
p419
S'optiboot'
p420
sS'unlock_bits'
p421
S'0x3F'
p422
ssS'upload'
p423
(dp424
S'speed'
p425
S'115200'
p426
sS'maximum_size'
p427
S'28672'
p428
sS'protocol'
p429
S'arduino'
>>>>>>> 9799479b13463f7d8eae611493547c0a004b50eb
p430
ssS'name'
p431
S'Arduino Mini w/ ATmega328'
p432
sg106
S'/usr/share/arduino/hardware/arduino'
p433
saa(lp434
S'mini'
p435
a(dp436
<<<<<<< HEAD
S'bootloader'
p437
(dp438
S'extended_fuses'
p439
S'0x00'
p440
sS'high_fuses'
p441
S'0xdd'
p442
sS'low_fuses'
p443
S'0xff'
p444
sS'lock_bits'
p445
S'0x0F'
p446
sS'file'
p447
S'ATmegaBOOT_168_ng.hex'
p448
sS'path'
p449
S'atmega'
p450
sS'unlock_bits'
p451
S'0x3F'
p452
ssS'upload'
p453
(dp454
S'speed'
p455
S'19200'
p456
sS'maximum_size'
p457
S'14336'
p458
sS'protocol'
p459
S'arduino'
p460
ssS'build'
p461
(dp462
S'core'
p463
S'arduino'
p464
sS'mcu'
p465
S'atmega168'
p466
sS'f_cpu'
p467
S'16000000L'
p468
sS'variant'
p469
S'eightanaloginputs'
=======
S'build'
p437
(dp438
S'core'
p439
S'arduino'
p440
sS'mcu'
p441
S'atmega168'
p442
sS'f_cpu'
p443
S'16000000L'
p444
sS'variant'
p445
S'eightanaloginputs'
p446
ssS'bootloader'
p447
(dp448
S'extended_fuses'
p449
S'0x00'
p450
sS'high_fuses'
p451
S'0xdd'
p452
sS'low_fuses'
p453
S'0xff'
p454
sS'lock_bits'
p455
S'0x0F'
p456
sS'file'
p457
S'ATmegaBOOT_168_ng.hex'
p458
sS'path'
p459
S'atmega'
p460
sS'unlock_bits'
p461
S'0x3F'
p462
ssS'upload'
p463
(dp464
S'speed'
p465
S'19200'
p466
sS'maximum_size'
p467
S'14336'
p468
sS'protocol'
p469
S'arduino'
>>>>>>> 9799479b13463f7d8eae611493547c0a004b50eb
p470
ssS'name'
p471
S'Arduino Mini w/ ATmega168'
p472
sg106
S'/usr/share/arduino/hardware/arduino'
p473
saa(lp474
S'ethernet'
p475
a(dp476
<<<<<<< HEAD
S'bootloader'
p477
(dp478
S'extended_fuses'
p479
S'0x05'
p480
sS'high_fuses'
p481
S'0xde'
p482
sS'low_fuses'
p483
S'0xff'
p484
sS'lock_bits'
p485
S'0x0F'
p486
sS'file'
p487
S'optiboot_atmega328.hex'
p488
sS'path'
p489
S'optiboot'
p490
sS'unlock_bits'
p491
S'0x3F'
p492
ssS'upload'
p493
(dp494
S'speed'
p495
S'115200'
p496
sS'maximum_size'
p497
S'32256'
p498
sS'protocol'
p499
S'arduino'
p500
ssS'build'
p501
(dp502
S'f_cpu'
p503
S'16000000L'
p504
sS'mcu'
p505
S'atmega328p'
p506
sS'variant'
p507
S'standard'
p508
sS'core'
=======
S'build'
p477
(dp478
S'f_cpu'
p479
S'16000000L'
p480
sS'mcu'
p481
S'atmega328p'
p482
sS'variant'
p483
S'standard'
p484
sS'core'
p485
S'arduino'
p486
ssS'bootloader'
p487
(dp488
S'extended_fuses'
p489
S'0x05'
p490
sS'high_fuses'
p491
S'0xde'
p492
sS'low_fuses'
p493
S'0xff'
p494
sS'lock_bits'
p495
S'0x0F'
p496
sS'file'
p497
S'optiboot_atmega328.hex'
p498
sS'path'
p499
S'optiboot'
p500
sS'unlock_bits'
p501
S'0x3F'
p502
ssS'upload'
p503
(dp504
S'speed'
p505
S'115200'
p506
sS'maximum_size'
p507
S'32256'
p508
sS'protocol'
>>>>>>> 9799479b13463f7d8eae611493547c0a004b50eb
p509
S'arduino'
p510
ssS'name'
p511
S'Arduino Ethernet'
p512
sg106
S'/usr/share/arduino/hardware/arduino'
p513
saa(lp514
S'fio'
p515
a(dp516
<<<<<<< HEAD
S'bootloader'
p517
(dp518
S'extended_fuses'
p519
S'0x05'
p520
sS'high_fuses'
p521
S'0xDA'
p522
sS'low_fuses'
p523
S'0xFF'
p524
sS'lock_bits'
p525
S'0x0F'
p526
sS'file'
p527
S'ATmegaBOOT_168_atmega328_pro_8MHz.hex'
p528
sS'path'
p529
S'arduino:atmega'
p530
sS'unlock_bits'
p531
S'0x3F'
p532
ssS'upload'
p533
(dp534
S'speed'
p535
S'57600'
p536
sS'maximum_size'
p537
S'30720'
p538
sS'protocol'
p539
S'arduino'
p540
ssS'build'
p541
(dp542
S'core'
p543
S'arduino'
p544
sS'mcu'
p545
S'atmega328p'
p546
sS'f_cpu'
p547
S'8000000L'
p548
sS'variant'
p549
S'eightanaloginputs'
=======
S'build'
p517
(dp518
S'core'
p519
S'arduino'
p520
sS'mcu'
p521
S'atmega328p'
p522
sS'f_cpu'
p523
S'8000000L'
p524
sS'variant'
p525
S'eightanaloginputs'
p526
ssS'bootloader'
p527
(dp528
S'extended_fuses'
p529
S'0x05'
p530
sS'high_fuses'
p531
S'0xDA'
p532
sS'low_fuses'
p533
S'0xFF'
p534
sS'lock_bits'
p535
S'0x0F'
p536
sS'file'
p537
S'ATmegaBOOT_168_atmega328_pro_8MHz.hex'
p538
sS'path'
p539
S'arduino:atmega'
p540
sS'unlock_bits'
p541
S'0x3F'
p542
ssS'upload'
p543
(dp544
S'speed'
p545
S'57600'
p546
sS'maximum_size'
p547
S'30720'
p548
sS'protocol'
p549
S'arduino'
>>>>>>> 9799479b13463f7d8eae611493547c0a004b50eb
p550
ssS'name'
p551
S'Arduino Fio'
p552
sg106
S'/usr/share/arduino/hardware/arduino'
p553
saa(lp554
S'bt328'
p555
a(dp556
<<<<<<< HEAD
S'bootloader'
p557
(dp558
S'extended_fuses'
p559
S'0x05'
p560
sS'high_fuses'
p561
S'0xd8'
p562
sS'low_fuses'
p563
S'0xff'
p564
sS'lock_bits'
p565
S'0x0F'
p566
sS'file'
p567
S'ATmegaBOOT_168_atmega328_bt.hex'
p568
sS'path'
p569
S'bt'
p570
sS'unlock_bits'
p571
S'0x3F'
p572
ssS'upload'
p573
(dp574
S'speed'
p575
S'19200'
p576
sS'maximum_size'
p577
S'28672'
p578
sS'protocol'
p579
S'arduino'
p580
sS'disable_flushing'
p581
S'true'
p582
ssS'build'
p583
(dp584
S'core'
p585
S'arduino'
p586
sS'mcu'
p587
S'atmega328p'
p588
sS'f_cpu'
p589
S'16000000L'
p590
sS'variant'
p591
S'eightanaloginputs'
=======
S'build'
p557
(dp558
S'core'
p559
S'arduino'
p560
sS'mcu'
p561
S'atmega328p'
p562
sS'f_cpu'
p563
S'16000000L'
p564
sS'variant'
p565
S'eightanaloginputs'
p566
ssS'bootloader'
p567
(dp568
S'extended_fuses'
p569
S'0x05'
p570
sS'high_fuses'
p571
S'0xd8'
p572
sS'low_fuses'
p573
S'0xff'
p574
sS'lock_bits'
p575
S'0x0F'
p576
sS'file'
p577
S'ATmegaBOOT_168_atmega328_bt.hex'
p578
sS'path'
p579
S'bt'
p580
sS'unlock_bits'
p581
S'0x3F'
p582
ssS'upload'
p583
(dp584
S'speed'
p585
S'19200'
p586
sS'maximum_size'
p587
S'28672'
p588
sS'protocol'
p589
S'arduino'
p590
sS'disable_flushing'
p591
S'true'
>>>>>>> 9799479b13463f7d8eae611493547c0a004b50eb
p592
ssS'name'
p593
S'Arduino BT w/ ATmega328'
p594
sg106
S'/usr/share/arduino/hardware/arduino'
p595
saa(lp596
S'bt'
p597
a(dp598
<<<<<<< HEAD
S'bootloader'
p599
(dp600
S'extended_fuses'
p601
S'0x00'
p602
sS'high_fuses'
p603
S'0xdd'
p604
sS'low_fuses'
p605
S'0xff'
p606
sS'lock_bits'
p607
S'0x0F'
p608
sS'file'
p609
S'ATmegaBOOT_168.hex'
p610
sS'path'
p611
S'bt'
p612
sS'unlock_bits'
p613
S'0x3F'
p614
ssS'upload'
p615
(dp616
S'speed'
p617
S'19200'
p618
sS'maximum_size'
p619
S'14336'
p620
sS'protocol'
p621
S'arduino'
p622
sS'disable_flushing'
p623
S'true'
p624
ssS'build'
p625
(dp626
S'core'
p627
S'arduino'
p628
sS'mcu'
p629
S'atmega168'
p630
sS'f_cpu'
p631
S'16000000L'
p632
sS'variant'
p633
S'eightanaloginputs'
=======
S'build'
p599
(dp600
S'core'
p601
S'arduino'
p602
sS'mcu'
p603
S'atmega168'
p604
sS'f_cpu'
p605
S'16000000L'
p606
sS'variant'
p607
S'eightanaloginputs'
p608
ssS'bootloader'
p609
(dp610
S'extended_fuses'
p611
S'0x00'
p612
sS'high_fuses'
p613
S'0xdd'
p614
sS'low_fuses'
p615
S'0xff'
p616
sS'lock_bits'
p617
S'0x0F'
p618
sS'file'
p619
S'ATmegaBOOT_168.hex'
p620
sS'path'
p621
S'bt'
p622
sS'unlock_bits'
p623
S'0x3F'
p624
ssS'upload'
p625
(dp626
S'speed'
p627
S'19200'
p628
sS'maximum_size'
p629
S'14336'
p630
sS'protocol'
p631
S'arduino'
p632
sS'disable_flushing'
p633
S'true'
>>>>>>> 9799479b13463f7d8eae611493547c0a004b50eb
p634
ssS'name'
p635
S'Arduino BT w/ ATmega168'
p636
sg106
S'/usr/share/arduino/hardware/arduino'
p637
saa(lp638
S'lilypad328'
p639
a(dp640
<<<<<<< HEAD
S'bootloader'
p641
(dp642
S'extended_fuses'
p643
S'0x05'
p644
sS'high_fuses'
p645
S'0xDA'
p646
sS'low_fuses'
p647
S'0xFF'
p648
sS'lock_bits'
p649
S'0x0F'
p650
sS'file'
p651
S'ATmegaBOOT_168_atmega328_pro_8MHz.hex'
p652
sS'path'
p653
S'atmega'
p654
sS'unlock_bits'
p655
S'0x3F'
p656
ssS'upload'
p657
(dp658
S'speed'
p659
S'57600'
p660
sS'maximum_size'
p661
S'30720'
p662
sS'protocol'
p663
S'arduino'
p664
ssS'build'
p665
(dp666
S'core'
p667
S'arduino'
p668
sS'mcu'
p669
S'atmega328p'
p670
sS'f_cpu'
p671
S'8000000L'
p672
sS'variant'
p673
S'standard'
=======
S'build'
p641
(dp642
S'core'
p643
S'arduino'
p644
sS'mcu'
p645
S'atmega328p'
p646
sS'f_cpu'
p647
S'8000000L'
p648
sS'variant'
p649
S'standard'
p650
ssS'bootloader'
p651
(dp652
S'extended_fuses'
p653
S'0x05'
p654
sS'high_fuses'
p655
S'0xDA'
p656
sS'low_fuses'
p657
S'0xFF'
p658
sS'lock_bits'
p659
S'0x0F'
p660
sS'file'
p661
S'ATmegaBOOT_168_atmega328_pro_8MHz.hex'
p662
sS'path'
p663
S'atmega'
p664
sS'unlock_bits'
p665
S'0x3F'
p666
ssS'upload'
p667
(dp668
S'speed'
p669
S'57600'
p670
sS'maximum_size'
p671
S'30720'
p672
sS'protocol'
p673
S'arduino'
>>>>>>> 9799479b13463f7d8eae611493547c0a004b50eb
p674
ssS'name'
p675
S'LilyPad Arduino w/ ATmega328'
p676
sg106
S'/usr/share/arduino/hardware/arduino'
p677
saa(lp678
S'lilypad'
p679
a(dp680
<<<<<<< HEAD
S'bootloader'
p681
(dp682
S'extended_fuses'
p683
S'0x00'
p684
sS'high_fuses'
p685
S'0xdd'
p686
sS'low_fuses'
p687
S'0xe2'
p688
sS'lock_bits'
p689
S'0x0F'
p690
sS'file'
p691
S'LilyPadBOOT_168.hex'
p692
sS'path'
p693
S'lilypad'
p694
sS'unlock_bits'
p695
S'0x3F'
p696
ssS'upload'
p697
(dp698
S'speed'
p699
S'19200'
p700
sS'maximum_size'
p701
S'14336'
p702
sS'protocol'
p703
S'arduino'
p704
ssS'build'
p705
(dp706
S'core'
p707
S'arduino'
p708
sS'mcu'
p709
S'atmega168'
p710
sS'f_cpu'
p711
S'8000000L'
p712
sS'variant'
p713
S'standard'
=======
S'build'
p681
(dp682
S'core'
p683
S'arduino'
p684
sS'mcu'
p685
S'atmega168'
p686
sS'f_cpu'
p687
S'8000000L'
p688
sS'variant'
p689
S'standard'
p690
ssS'bootloader'
p691
(dp692
S'extended_fuses'
p693
S'0x00'
p694
sS'high_fuses'
p695
S'0xdd'
p696
sS'low_fuses'
p697
S'0xe2'
p698
sS'lock_bits'
p699
S'0x0F'
p700
sS'file'
p701
S'LilyPadBOOT_168.hex'
p702
sS'path'
p703
S'lilypad'
p704
sS'unlock_bits'
p705
S'0x3F'
p706
ssS'upload'
p707
(dp708
S'speed'
p709
S'19200'
p710
sS'maximum_size'
p711
S'14336'
p712
sS'protocol'
p713
S'arduino'
>>>>>>> 9799479b13463f7d8eae611493547c0a004b50eb
p714
ssS'name'
p715
S'LilyPad Arduino w/ ATmega168'
p716
sg106
S'/usr/share/arduino/hardware/arduino'
p717
saa(lp718
S'pro5v328'
p719
a(dp720
<<<<<<< HEAD
S'bootloader'
p721
(dp722
S'extended_fuses'
p723
S'0x05'
p724
sS'high_fuses'
p725
S'0xDA'
p726
sS'low_fuses'
p727
S'0xFF'
p728
sS'lock_bits'
p729
S'0x0F'
p730
sS'file'
p731
S'ATmegaBOOT_168_atmega328.hex'
p732
sS'path'
p733
S'atmega'
p734
sS'unlock_bits'
p735
S'0x3F'
p736
ssS'upload'
p737
(dp738
S'speed'
p739
S'57600'
p740
sS'maximum_size'
p741
S'30720'
p742
sS'protocol'
p743
S'arduino'
p744
ssS'build'
p745
(dp746
S'core'
p747
S'arduino'
p748
sS'mcu'
p749
S'atmega328p'
p750
sS'f_cpu'
p751
S'16000000L'
p752
sS'variant'
p753
S'standard'
=======
S'build'
p721
(dp722
S'core'
p723
S'arduino'
p724
sS'mcu'
p725
S'atmega328p'
p726
sS'f_cpu'
p727
S'16000000L'
p728
sS'variant'
p729
S'standard'
p730
ssS'bootloader'
p731
(dp732
S'extended_fuses'
p733
S'0x05'
p734
sS'high_fuses'
p735
S'0xDA'
p736
sS'low_fuses'
p737
S'0xFF'
p738
sS'lock_bits'
p739
S'0x0F'
p740
sS'file'
p741
S'ATmegaBOOT_168_atmega328.hex'
p742
sS'path'
p743
S'atmega'
p744
sS'unlock_bits'
p745
S'0x3F'
p746
ssS'upload'
p747
(dp748
S'speed'
p749
S'57600'
p750
sS'maximum_size'
p751
S'30720'
p752
sS'protocol'
p753
S'arduino'
>>>>>>> 9799479b13463f7d8eae611493547c0a004b50eb
p754
ssS'name'
p755
S'Arduino Pro or Pro Mini (5V, 16 MHz) w/ ATmega328'
p756
sg106
S'/usr/share/arduino/hardware/arduino'
p757
saa(lp758
S'pro5v'
p759
a(dp760
<<<<<<< HEAD
S'bootloader'
p761
(dp762
S'extended_fuses'
p763
S'0x00'
p764
sS'high_fuses'
p765
S'0xdd'
p766
sS'low_fuses'
p767
S'0xff'
p768
sS'lock_bits'
p769
S'0x0F'
p770
sS'file'
p771
S'ATmegaBOOT_168_diecimila.hex'
p772
sS'path'
p773
S'atmega'
p774
sS'unlock_bits'
p775
S'0x3F'
p776
ssS'upload'
p777
(dp778
S'speed'
p779
S'19200'
p780
sS'maximum_size'
p781
S'14336'
p782
sS'protocol'
p783
S'arduino'
p784
ssS'build'
p785
(dp786
S'core'
p787
S'arduino'
p788
sS'mcu'
p789
S'atmega168'
p790
sS'f_cpu'
p791
S'16000000L'
p792
sS'variant'
p793
S'standard'
=======
S'build'
p761
(dp762
S'core'
p763
S'arduino'
p764
sS'mcu'
p765
S'atmega168'
p766
sS'f_cpu'
p767
S'16000000L'
p768
sS'variant'
p769
S'standard'
p770
ssS'bootloader'
p771
(dp772
S'extended_fuses'
p773
S'0x00'
p774
sS'high_fuses'
p775
S'0xdd'
p776
sS'low_fuses'
p777
S'0xff'
p778
sS'lock_bits'
p779
S'0x0F'
p780
sS'file'
p781
S'ATmegaBOOT_168_diecimila.hex'
p782
sS'path'
p783
S'atmega'
p784
sS'unlock_bits'
p785
S'0x3F'
p786
ssS'upload'
p787
(dp788
S'speed'
p789
S'19200'
p790
sS'maximum_size'
p791
S'14336'
p792
sS'protocol'
p793
S'arduino'
>>>>>>> 9799479b13463f7d8eae611493547c0a004b50eb
p794
ssS'name'
p795
S'Arduino Pro or Pro Mini (5V, 16 MHz) w/ ATmega168'
p796
sg106
S'/usr/share/arduino/hardware/arduino'
p797
saa(lp798
S'pro328'
p799
a(dp800
<<<<<<< HEAD
S'bootloader'
p801
(dp802
S'extended_fuses'
p803
S'0x05'
p804
sS'high_fuses'
p805
S'0xDA'
p806
sS'low_fuses'
p807
S'0xFF'
p808
sS'lock_bits'
p809
S'0x0F'
p810
sS'file'
p811
S'ATmegaBOOT_168_atmega328_pro_8MHz.hex'
p812
sS'path'
p813
S'atmega'
p814
sS'unlock_bits'
p815
S'0x3F'
p816
ssS'upload'
p817
(dp818
S'speed'
p819
S'57600'
p820
sS'maximum_size'
p821
S'30720'
p822
sS'protocol'
p823
S'arduino'
p824
ssS'build'
p825
(dp826
S'core'
p827
S'arduino'
p828
sS'mcu'
p829
S'atmega328p'
p830
sS'f_cpu'
p831
S'8000000L'
p832
sS'variant'
p833
S'standard'
=======
S'build'
p801
(dp802
S'core'
p803
S'arduino'
p804
sS'mcu'
p805
S'atmega328p'
p806
sS'f_cpu'
p807
S'8000000L'
p808
sS'variant'
p809
S'standard'
p810
ssS'bootloader'
p811
(dp812
S'extended_fuses'
p813
S'0x05'
p814
sS'high_fuses'
p815
S'0xDA'
p816
sS'low_fuses'
p817
S'0xFF'
p818
sS'lock_bits'
p819
S'0x0F'
p820
sS'file'
p821
S'ATmegaBOOT_168_atmega328_pro_8MHz.hex'
p822
sS'path'
p823
S'atmega'
p824
sS'unlock_bits'
p825
S'0x3F'
p826
ssS'upload'
p827
(dp828
S'speed'
p829
S'57600'
p830
sS'maximum_size'
p831
S'30720'
p832
sS'protocol'
p833
S'arduino'
>>>>>>> 9799479b13463f7d8eae611493547c0a004b50eb
p834
ssS'name'
p835
S'Arduino Pro or Pro Mini (3.3V, 8 MHz) w/ ATmega328'
p836
sg106
S'/usr/share/arduino/hardware/arduino'
p837
saa(lp838
S'pro'
p839
a(dp840
<<<<<<< HEAD
S'bootloader'
p841
(dp842
S'extended_fuses'
p843
S'0x00'
p844
sS'high_fuses'
p845
S'0xdd'
p846
sS'low_fuses'
p847
S'0xc6'
p848
sS'lock_bits'
p849
S'0x0F'
p850
sS'file'
p851
S'ATmegaBOOT_168_pro_8MHz.hex'
p852
sS'path'
p853
S'atmega'
p854
sS'unlock_bits'
p855
S'0x3F'
p856
ssS'upload'
p857
(dp858
S'speed'
p859
S'19200'
p860
sS'maximum_size'
p861
S'14336'
p862
sS'protocol'
p863
S'arduino'
p864
ssS'build'
p865
(dp866
S'core'
p867
S'arduino'
p868
sS'mcu'
p869
S'atmega168'
p870
sS'f_cpu'
p871
S'8000000L'
p872
sS'variant'
p873
S'standard'
=======
S'build'
p841
(dp842
S'core'
p843
S'arduino'
p844
sS'mcu'
p845
S'atmega168'
p846
sS'f_cpu'
p847
S'8000000L'
p848
sS'variant'
p849
S'standard'
p850
ssS'bootloader'
p851
(dp852
S'extended_fuses'
p853
S'0x00'
p854
sS'high_fuses'
p855
S'0xdd'
p856
sS'low_fuses'
p857
S'0xc6'
p858
sS'lock_bits'
p859
S'0x0F'
p860
sS'file'
p861
S'ATmegaBOOT_168_pro_8MHz.hex'
p862
sS'path'
p863
S'atmega'
p864
sS'unlock_bits'
p865
S'0x3F'
p866
ssS'upload'
p867
(dp868
S'speed'
p869
S'19200'
p870
sS'maximum_size'
p871
S'14336'
p872
sS'protocol'
p873
S'arduino'
>>>>>>> 9799479b13463f7d8eae611493547c0a004b50eb
p874
ssS'name'
p875
S'Arduino Pro or Pro Mini (3.3V, 8 MHz) w/ ATmega168'
p876
sg106
S'/usr/share/arduino/hardware/arduino'
p877
saa(lp878
S'atmega168'
p879
a(dp880
<<<<<<< HEAD
S'bootloader'
p881
(dp882
S'extended_fuses'
p883
S'0x00'
p884
sS'high_fuses'
p885
S'0xdd'
p886
sS'low_fuses'
p887
S'0xff'
p888
sS'lock_bits'
p889
S'0x0F'
p890
sS'file'
p891
S'ATmegaBOOT_168_ng.hex'
p892
sS'path'
p893
S'atmega'
p894
sS'unlock_bits'
p895
S'0x3F'
p896
ssS'upload'
p897
(dp898
S'speed'
p899
S'19200'
p900
sS'maximum_size'
p901
S'14336'
p902
sS'protocol'
p903
S'arduino'
p904
ssS'build'
p905
(dp906
S'core'
p907
S'arduino'
p908
sS'mcu'
p909
S'atmega168'
p910
sS'f_cpu'
p911
S'16000000L'
p912
sS'variant'
p913
S'standard'
=======
S'build'
p881
(dp882
S'core'
p883
S'arduino'
p884
sS'mcu'
p885
S'atmega168'
p886
sS'f_cpu'
p887
S'16000000L'
p888
sS'variant'
p889
S'standard'
p890
ssS'bootloader'
p891
(dp892
S'extended_fuses'
p893
S'0x00'
p894
sS'high_fuses'
p895
S'0xdd'
p896
sS'low_fuses'
p897
S'0xff'
p898
sS'lock_bits'
p899
S'0x0F'
p900
sS'file'
p901
S'ATmegaBOOT_168_ng.hex'
p902
sS'path'
p903
S'atmega'
p904
sS'unlock_bits'
p905
S'0x3F'
p906
ssS'upload'
p907
(dp908
S'speed'
p909
S'19200'
p910
sS'maximum_size'
p911
S'14336'
p912
sS'protocol'
p913
S'arduino'
>>>>>>> 9799479b13463f7d8eae611493547c0a004b50eb
p914
ssS'name'
p915
S'Arduino NG or older w/ ATmega168'
p916
sg106
S'/usr/share/arduino/hardware/arduino'
p917
saa(lp918
S'atmega8'
p919
a(dp920
<<<<<<< HEAD
S'bootloader'
p921
(dp922
S'high_fuses'
p923
S'0xca'
p924
sS'low_fuses'
p925
S'0xdf'
p926
sS'lock_bits'
p927
S'0x0F'
p928
sS'file'
p929
S'ATmegaBOOT.hex'
p930
sS'path'
p931
S'atmega8'
p932
sS'unlock_bits'
p933
S'0x3F'
p934
ssS'upload'
p935
(dp936
S'speed'
p937
S'19200'
p938
sS'maximum_size'
p939
S'7168'
p940
sS'protocol'
p941
S'arduino'
p942
ssS'build'
p943
(dp944
S'core'
p945
S'arduino'
p946
sS'mcu'
p947
S'atmega8'
p948
sS'f_cpu'
p949
S'16000000L'
p950
sS'variant'
p951
S'standard'
=======
S'build'
p921
(dp922
S'core'
p923
S'arduino'
p924
sS'mcu'
p925
S'atmega8'
p926
sS'f_cpu'
p927
S'16000000L'
p928
sS'variant'
p929
S'standard'
p930
ssS'bootloader'
p931
(dp932
S'high_fuses'
p933
S'0xca'
p934
sS'low_fuses'
p935
S'0xdf'
p936
sS'lock_bits'
p937
S'0x0F'
p938
sS'file'
p939
S'ATmegaBOOT.hex'
p940
sS'path'
p941
S'atmega8'
p942
sS'unlock_bits'
p943
S'0x3F'
p944
ssS'upload'
p945
(dp946
S'speed'
p947
S'19200'
p948
sS'maximum_size'
p949
S'7168'
p950
sS'protocol'
p951
S'arduino'
>>>>>>> 9799479b13463f7d8eae611493547c0a004b50eb
p952
ssS'name'
p953
S'Arduino NG or older w/ ATmega8'
p954
sg106
S'/usr/share/arduino/hardware/arduino'
p955
saatp956
Rp957
(dp958
S'default'
p959
S'uno'
p960
sbtp961
a(S'used_libs'
p962
(lp963
S'lib/MicroView'
p964
aS'lib/Adafruit_NeoPixel'
p965
aS'lib/CapacitiveSensor'
p966
aS'/usr/share/arduino/hardware/arduino/cores/arduino'
p967
atp968
a(S'make'
p969
S'/usr/bin/make'
p970
tp971
a(S'arduino_libraries_dir'
p972
S'/usr/share/arduino/libraries'
p973
tp974
a(S'cc'
p975
S'/usr/bin/avr-gcc'
p976
tp977
a(S'cflags'
p978
g2
(g3
g4
(lp979
tp980
Rp981
tp982
a(S'cxxflags'
p983
g2
(g3
g4
(lp984
S'-fno-exceptions'
p985
atp986
Rp987
tp988
a(S'arduino_variants_dir'
p989
S'/usr/share/arduino/hardware/arduino/variants'
p990
tp991
a(S'stty'
p992
S'/bin/stty'
p993
tp994
a(S'version.txt'
p995
S'/usr/share/arduino/lib/version.txt'
p996
tp997
a(S'arduino_core_dir'
p998
g967
tp999
a(S'boards.txt'
p1000
(lp1001
S'/usr/share/arduino/hardware/arduino/boards.txt'
p1002
atp1003
a(S'avrdude.conf'
p1004
S'/usr/share/arduino/hardware/tools/avrdude.conf'
p1005
tp1006
a(S'deps'
p1007
g2
(g3
g4
(lp1008
S'.build/uno/src/dependencies.d'
p1009
aS'.build/uno/arduino/dependencies.d'
p1010
aS'.build/uno/MicroView/dependencies.d'
p1011
aS'.build/uno/Adafruit_NeoPixel/dependencies.d'
p1012
aS'.build/uno/CapacitiveSensor/dependencies.d'
p1013
atp1014
Rp1015
tp1016
a.